target datalayout = "e-m:e-p270:32:32-p271:32:32-p272:64:64-i64:64-i128:128-f80:128-n8:16:32:64-S128"
target triple = "x86_64-unknown-linux-gnu"

@.str = private unnamed_addr constant [12 x i8] c"buf != NULL\00", align 1
@.str.1 = private unnamed_addr constant [21 x i8] c"../qemu/block/vhdx.c\00", align 1
@__PRETTY_FUNCTION__.vhdx_update_checksum = private unnamed_addr constant [54 x i8] c"uint32_t vhdx_update_checksum(uint8_t *, size_t, int)\00", align 1
@.str.2 = private unnamed_addr constant [34 x i8] c"size > (crc_offset + sizeof(crc))\00", align 1

; Function Attrs: nounwind sspstrong uwtable
define internal i32 @cpu_to_le32(i32 noundef %v) #0 {
entry:
  %v.addr = alloca i32, align 4
  store i32 %v, ptr %v.addr, align 4
  %0 = load i32, ptr %v.addr, align 4
  ret i32 %0
}

; Function Attrs: nounwind sspstrong uwtable
define dso_local i32 @vhdx_update_checksum(ptr noundef %buf, i64 noundef %size, i32 noundef %crc_offset) #0 {
entry:
  %buf.addr = alloca ptr, align 8
  %size.addr = alloca i64, align 8
  %crc_offset.addr = alloca i32, align 4
  %crc = alloca i32, align 4
  store ptr %buf, ptr %buf.addr, align 8
  store i64 %size, ptr %size.addr, align 8
  store i32 %crc_offset, ptr %crc_offset.addr, align 4
  %0 = load ptr, ptr %buf.addr, align 8
  %cmp = icmp ne ptr %0, null
  br i1 %cmp, label %if.then, label %if.else

if.then:                                          ; preds = %entry
  br label %if.end

if.else:                                          ; preds = %entry
  call void @__assert_fail(ptr noundef @.str, ptr noundef @.str.1, i32 noundef 156, ptr noundef @__PRETTY_FUNCTION__.vhdx_update_checksum) #10
  unreachable

if.end:                                           ; preds = %if.then
  %1 = load i64, ptr %size.addr, align 8
  %2 = load i32, ptr %crc_offset.addr, align 4
  %conv = sext i32 %2 to i64
  %add = add i64 %conv, 4
  %cmp1 = icmp ugt i64 %1, %add
  br i1 %cmp1, label %if.then3, label %if.else4

if.then3:                                         ; preds = %if.end
  br label %if.end5

if.else4:                                         ; preds = %if.end
  call void @__assert_fail(ptr noundef @.str.2, ptr noundef @.str.1, i32 noundef 157, ptr noundef @__PRETTY_FUNCTION__.vhdx_update_checksum) #10
  unreachable

if.end5:                                          ; preds = %if.then3
  %3 = load ptr, ptr %buf.addr, align 8
  %4 = load i32, ptr %crc_offset.addr, align 4
  %idx.ext = sext i32 %4 to i64
  %add.ptr = getelementptr i8, ptr %3, i64 %idx.ext
  call void @llvm.memset.p0.i64(ptr align 1 %add.ptr, i8 0, i64 4, i1 false)
  %5 = load ptr, ptr %buf.addr, align 8
  %6 = load i64, ptr %size.addr, align 8
  %conv6 = trunc i64 %6 to i32
  %call = call i32 @crc32c(i32 noundef -1, ptr noundef %5, i32 noundef %conv6)
  store i32 %call, ptr %crc, align 4
  %7 = load i32, ptr %crc, align 4
  %call7 = call i32 @cpu_to_le32(i32 noundef %7)
  store i32 %call7, ptr %crc, align 4
  %8 = load ptr, ptr %buf.addr, align 8
  %9 = load i32, ptr %crc_offset.addr, align 4
  %idx.ext8 = sext i32 %9 to i64
  %add.ptr9 = getelementptr i8, ptr %8, i64 %idx.ext8
  call void @llvm.memcpy.p0.p0.i64(ptr align 1 %add.ptr9, ptr align 4 %crc, i64 4, i1 false)
  %10 = load i32, ptr %crc, align 4
  ret i32 %10
}