; Function Attrs: nounwind sspstrong uwtable
define dso_local i32 @vhdx_update_checksum(ptr noundef %buf, i64 noundef %size, i32 noundef %crc_offset) local_unnamed_addr #0 {
entry:
  %cmp.not = icmp eq ptr %buf, null
  br i1 %cmp.not, label %if.else, label %if.end

if.else:                                          ; preds = %entry
  tail call void @__assert_fail(ptr noundef nonnull @.str, ptr noundef nonnull @.str.1, i32 noundef 156, ptr noundef nonnull @__PRETTY_FUNCTION__.vhdx_update_checksum) #16
  unreachable

if.end:                                           ; preds = %entry
  %conv = sext i32 %crc_offset to i64
  %add = add nsw i64 %conv, 4
  %cmp1 = icmp ugt i64 %size, %add
  br i1 %cmp1, label %if.end5, label %if.else4

if.else4:                                         ; preds = %if.end
  tail call void @__assert_fail(ptr noundef nonnull @.str.2, ptr noundef nonnull @.str.1, i32 noundef 157, ptr noundef nonnull @__PRETTY_FUNCTION__.vhdx_update_checksum) #16
  unreachable

if.end5:                                          ; preds = %if.end
  %add.ptr = getelementptr i8, ptr %buf, i64 %conv
  store i32 0, ptr %add.ptr, align 1
  %conv6 = trunc i64 %size to i32
  %call = tail call i32 @crc32c(i32 noundef -1, ptr noundef nonnull %buf, i32 noundef %conv6) #17
  store i32 %call, ptr %add.ptr, align 1
  ret i32 %call
}